
Allocating common symbols
Common symbol       size              file

ultoabuf            0x9               ../../libc/ultoa.o
fdc_track           0x1               floppyd.o
fdc_sr0             0x1               floppyd.o

Memory Configuration

Name             Origin             Length             Attributes
*default*        0x0000000000000000 0xffffffffffffffff

Linker script and memory map


.text           0x0000000001000000      0xc6d
                0x0000000001000000                code = .
                0x0000000001000000                _code = .
 *(.text)
 .text          0x0000000001000000        0xb ../entry/entry.o
 *fill*         0x000000000100000b 0x100000b00000001 00
 .text          0x000000000100000c      0x642 floppyd.o
                0x00000000010001b4                fdc_wait
                0x0000000001000334                fdc_reset
                0x0000000001000498                fdc_init
                0x0000000001000384                fdc_readwrite
                0x0000000001000314                fdc_recalibrate
                0x00000000010002c0                fdc_stop_motor
                0x0000000001000160                fdc_sendbyte
                0x0000000001000540                main
                0x00000000010002ac                fdc_start_motor
                0x000000000100000c                dma_xfer
                0x00000000010002cc                fdc_seek
                0x0000000001000090                fdc_block2hts
                0x0000000001000110                fdc_getbyte
 *fill*         0x000000000100064e 0x100064e00000002 00
 .text          0x0000000001000650       0x24 ../../libc/memcpy.o
                0x0000000001000650                memcpy
 .text          0x0000000001000674       0x1e ../../libc/memset.o
                0x0000000001000674                memset
 *fill*         0x0000000001000692 0x100069200000002 00
 .text          0x0000000001000694       0xd3 ../../libc/sprintf.o
                0x0000000001000694                sprintf
 *fill*         0x0000000001000767 0x100076700000001 00
 .text          0x0000000001000768       0x8c ../../libc/printf.o
                0x0000000001000768                printf
 .text          0x00000000010007f4       0x62 ../../libc/strlen.o
                0x00000000010007f4                strlen
 *fill*         0x0000000001000856 0x100085600000002 00
 .text          0x0000000001000858      0x184 ../../libc/ultoa.o
                0x0000000001000858                __ultoa
                0x00000000010009a8                ultoa
 .text          0x00000000010009dc       0x16 ../../libc/strchr.o
                0x00000000010009dc                strchr
 *fill*         0x00000000010009f2 0x10009f200000002 00
 .text          0x00000000010009f4       0x29 ../../libc/strcmp.o
                0x00000000010009f4                strcmp
 *fill*         0x0000000001000a1d 0x1000a1d00000003 00
 .text          0x0000000001000a20      0x225 ../../libc/system.o
                0x0000000001000aac                getprocessname
                0x0000000001000a74                getmessage
                0x0000000001000b94                gets
                0x0000000001000a5c                findprocess
                0x0000000001000a88                getpid
                0x0000000001000b54                puts
                0x0000000001000b7c                sleep
                0x0000000001000b3c                setmyname
                0x0000000001000bd4                enableirq
                0x0000000001000ae0                getprocessstate
                0x0000000001000b24                sendmessage
                0x0000000001000a20                uname
                0x0000000001000a38                createsharedframe
                0x0000000001000c1c                clearirqstatus
                0x0000000001000c04                getirqstatus
                0x0000000001000b68                putc
                0x0000000001000b0c                isprocess
                0x0000000001000bec                disableirq
                0x0000000001000a98                getprocesscount
                0x0000000001000a4c                freesharedframe
                0x0000000001000c34                getbootdevice
                0x0000000001000af8                gettickcount
                0x0000000001000ac4                setprocessstate
 *fill*         0x0000000001000c45 0x1000c450000000b 00
 .text          0x0000000001000c50       0x1d ../../libc/systemcall.o
                0x0000000001000c50                systemcall

.rodata         0x0000000001000c70      0x108
                0x0000000001000c70                rodata = .
 *(.rodata)
 .rodata        0x0000000001000c70       0x84 ../../libc/sprintf.o
 .rodata        0x0000000001000cf4       0x84 ../../libc/printf.o

.rodata.str1.4  0x0000000001000d78       0x8d
                0x0000000001000d78                rodata.str1.4 = .
 *(.rodata.str1.4)
 .rodata.str1.4
                0x0000000001000d78       0x8d floppyd.o

.rodata.str1.1  0x0000000001000e05       0x48
                0x0000000001000e05                rodata.str1.1 = .
 *(.rodata.str1.1)
 .rodata.str1.1
                0x0000000001000e05       0x31 floppyd.o
 .rodata.str1.1
                0x0000000001000e36       0x11 ../../libc/ultoa.o
 .rodata.str1.1
                0x0000000001000e47        0x6 ../../libc/system.o

.data           0x0000000001000e50       0x30
 *(.data)
 .data          0x0000000001000e50       0x30 floppyd.o
                0x0000000001000e50                CountPort
                0x0000000001000e58                AddrPort
                0x0000000001000e68                ClearReg
                0x0000000001000e70                ModeReg
                0x0000000001000e78                MaskReg
                0x0000000001000e60                PagePort
                0x0000000001000e80                edata = .

.bss            0x0000000001000e80       0x5f
                0x0000000001000e80                bss = .
                0x0000000001000e80                _bss = .
 *(.bss)
 .bss           0x0000000001000e80       0x44 floppyd.o
                0x0000000001000e80                fdc_statsz
                0x0000000001000e81                fdc_status
                0x0000000001000e88                fdc_drive
 .bss           0x0000000001000ec4       0x10 ../../libc/system.o
 *(.COMMON)
 COMMON         0x0000000001000ed4        0x2 floppyd.o
                                          0x0 (size before relaxing)
                0x0000000001000ed4                fdc_track
                0x0000000001000ed5                fdc_sr0
 COMMON         0x0000000001000ed6        0x9 ../../libc/ultoa.o
                                          0x0 (size before relaxing)
                0x0000000001000ed6                ultoabuf
                0x0000000001000edf                end = .
                0x0000000001000edf                _end = .
LOAD ../entry/entry.o
LOAD floppyd.o
LOAD ../../libc/memcpy.o
LOAD ../../libc/memset.o
LOAD ../../libc/sprintf.o
LOAD ../../libc/printf.o
LOAD ../../libc/strlen.o
LOAD ../../libc/ultoa.o
LOAD ../../libc/strchr.o
LOAD ../../libc/strcmp.o
LOAD ../../libc/system.o
LOAD ../../libc/systemcall.o
OUTPUT(../../bin/floppyd.dri binary)

.comment        0x0000000000000000      0x1b0
 .comment       0x0000000000000000       0x1f ../entry/entry.o
 .comment       0x000000000000001f       0x25 floppyd.o
 .comment       0x0000000000000044       0x25 ../../libc/memcpy.o
 .comment       0x0000000000000069       0x25 ../../libc/memset.o
 .comment       0x000000000000008e       0x25 ../../libc/sprintf.o
 .comment       0x00000000000000b3       0x25 ../../libc/printf.o
 .comment       0x00000000000000d8       0x25 ../../libc/strlen.o
 .comment       0x00000000000000fd       0x25 ../../libc/ultoa.o
 .comment       0x0000000000000122       0x25 ../../libc/strchr.o
 .comment       0x0000000000000147       0x25 ../../libc/strcmp.o
 .comment       0x000000000000016c       0x25 ../../libc/system.o
 .comment       0x0000000000000191       0x1f ../../libc/systemcall.o
